; Function Attrs: mustprogress nounwind uwtable
define dso_local void @_ZN20Sample_TempObstaclesD0Ev(ptr noundef nonnull align 8 dereferenceable(276) %0) unnamed_addr #0 align 2 personality ptr @__gxx_personality_v0 {
  store ptr getelementptr inbounds ({ [23 x ptr] }, ptr @_ZTV20Sample_TempObstacles, i64 0, i32 0, i64 2), ptr %0, align 8
  %2 = getelementptr inbounds i8, ptr %0, i64 16
  %3 = load ptr, ptr %2, align 8
  invoke void @_Z13dtFreeNavMeshP9dtNavMesh(ptr noundef %3)
          to label %4 unwind label %7

4:                                                ; preds = %1
  store ptr null, ptr %2, align 8
  %5 = getelementptr inbounds i8, ptr %0, i64 232
  %6 = load ptr, ptr %5, align 8
  invoke void @_Z15dtFreeTileCacheP11dtTileCache(ptr noundef %6)
          to label %_ZN20Sample_TempObstaclesD2Ev.exit unwind label %7

7:                                                ; preds = %4, %1
  %8 = landingpad { ptr, i32 }
          catch ptr null
  %9 = extractvalue { ptr, i32 } %8, 0
  tail call void @__clang_call_terminate(ptr %9) #16
  unreachable

_ZN20Sample_TempObstaclesD2Ev.exit:               ; preds = %4
  tail call void @_ZN6SampleD2Ev(ptr noundef nonnull align 8 dereferenceable(200) %0) #14
  tail call void @_ZdlPv(ptr noundef nonnull %0) #15
  ret void
}